target datalayout = "e-m:e-p270:32:32-p271:32:32-p272:64:64-i64:64-i128:128-f80:128-n8:16:32:64-S128"
target triple = "x86_64-pc-linux-gnu"

%"class.OpenSubdiv::v3_6_0::Bfr::MultiVertexTag" = type { %"class.OpenSubdiv::v3_6_0::Bfr::FeatureBits" }
%"class.OpenSubdiv::v3_6_0::Bfr::FeatureBits" = type { i16 }
%"class.OpenSubdiv::v3_6_0::Bfr::RegularPatchBuilder" = type { ptr, i8, i32, i32, i32 }
%"class.OpenSubdiv::v3_6_0::Bfr::FaceTopology" = type { i32, %"class.OpenSubdiv::v3_6_0::Sdc::Options", i32, i32, i32, %"class.OpenSubdiv::v3_6_0::Bfr::MultiVertexTag", i8, %"class.OpenSubdiv::v3_6_0::Vtr::internal::StackBuffer.0" }
%"class.OpenSubdiv::v3_6_0::Sdc::Options" = type { i8, i8, i8, i8 }
%"class.OpenSubdiv::v3_6_0::Vtr::internal::StackBuffer.0" = type { ptr, i32, i32, [896 x i8], ptr }
%"struct.OpenSubdiv::v3_6_0::Bfr::FaceVertexSubset" = type { %"class.OpenSubdiv::v3_6_0::Bfr::VertexTag", i16, i16, i16, float }
%"class.OpenSubdiv::v3_6_0::Bfr::VertexTag" = type { %"class.OpenSubdiv::v3_6_0::Bfr::FeatureBits" }
%"class.OpenSubdiv::v3_6_0::Bfr::FaceSurface" = type <{ ptr, ptr, %"class.OpenSubdiv::v3_6_0::Vtr::internal::StackBuffer", %"class.OpenSubdiv::v3_6_0::Bfr::MultiVertexTag", %"class.OpenSubdiv::v3_6_0::Sdc::Options", i8, i8 }>
%"class.OpenSubdiv::v3_6_0::Vtr::internal::StackBuffer" = type { ptr, i32, i32, [96 x i8], ptr }

; Function Attrs: mustprogress nounwind uwtable
define linkonce_odr noundef ptr @_ZNK10OpenSubdiv6v3_6_03Vtr8internal11StackBufferINS0_3Bfr16FaceVertexSubsetELj8ELb1EEcvPKS5_Ev(ptr noundef nonnull align 8 dereferenceable(120) %0) #1 comdat align 2 {
  %2 = alloca ptr, align 8
  store ptr %0, ptr %2, align 8
  %3 = load ptr, ptr %2, align 8
  %4 = getelementptr inbounds nuw %"class.OpenSubdiv::v3_6_0::Vtr::internal::StackBuffer", ptr %3, i32 0, i32 0
  %5 = load ptr, ptr %4, align 8
  ret ptr %5
}

; Function Attrs: mustprogress nounwind uwtable
define linkonce_odr void @_ZN10OpenSubdiv6v3_6_03Bfr11FeatureBitsD2Ev(ptr noundef nonnull align 2 dereferenceable(2) %0) unnamed_addr #1 comdat align 2 {
  %2 = alloca ptr, align 8
  store ptr %0, ptr %2, align 8
  ret void
}

; Function Attrs: mustprogress nounwind uwtable
define internal noundef i32 @_ZN10OpenSubdiv6v3_6_03Bfr12_GLOBAL__N_121encodeTriBoundaryMaskEii(i32 noundef %0, i32 noundef %1) #1 {
  %3 = alloca i32, align 4
  %4 = alloca i32, align 4
  %5 = alloca i32, align 4
  %6 = alloca i32, align 4
  store i32 %0, ptr %3, align 4
  store i32 %1, ptr %4, align 4
  store i32 0, ptr %5, align 4
  %7 = load i32, ptr %3, align 4
  store i32 %7, ptr %6, align 4
  %8 = load i32, ptr %4, align 4
  %9 = icmp ne i32 %8, 0
  br i1 %9, label %10, label %31

10:                                               ; preds = %2
  %11 = load i32, ptr %3, align 4
  %12 = icmp eq i32 %11, 0
  br i1 %12, label %13, label %15

13:                                               ; preds = %10
  store i32 1, ptr %5, align 4
  %14 = load i32, ptr %4, align 4
  store i32 %14, ptr %6, align 4
  br label %30

15:                                               ; preds = %10
  %16 = load i32, ptr %4, align 4
  %17 = icmp eq i32 %16, 7
  br i1 %17, label %18, label %29

18:                                               ; preds = %15
  %19 = load i32, ptr %3, align 4
  %20 = icmp eq i32 %19, 1
  br i1 %20, label %27, label %21

21:                                               ; preds = %18
  %22 = load i32, ptr %3, align 4
  %23 = icmp eq i32 %22, 2
  br i1 %23, label %27, label %24

24:                                               ; preds = %21
  %25 = load i32, ptr %3, align 4
  %26 = icmp eq i32 %25, 4
  br i1 %26, label %27, label %29

27:                                               ; preds = %24, %21, %18
  store i32 2, ptr %5, align 4
  %28 = load i32, ptr %3, align 4
  store i32 %28, ptr %6, align 4
  br label %29

29:                                               ; preds = %27, %24, %15
  br label %30

30:                                               ; preds = %29, %13
  br label %31

31:                                               ; preds = %30, %2
  %32 = load i32, ptr %5, align 4
  %33 = shl i32 %32, 3
  %34 = load i32, ptr %6, align 4
  %35 = or i32 %33, %34
  ret i32 %35
}

; Function Attrs: mustprogress nounwind uwtable
define linkonce_odr noundef zeroext i1 @_ZNK10OpenSubdiv6v3_6_03Bfr16FaceVertexSubset10IsBoundaryEv(ptr noundef nonnull align 4 dereferenceable(12) %0) #1 comdat align 2 {
  %2 = alloca ptr, align 8
  store ptr %0, ptr %2, align 8
  %3 = load ptr, ptr %2, align 8
  %4 = getelementptr inbounds nuw %"struct.OpenSubdiv::v3_6_0::Bfr::FaceVertexSubset", ptr %3, i32 0, i32 0
  %5 = load i16, ptr %4, align 4
  %6 = and i16 %5, 1
  %7 = icmp ne i16 %6, 0
  ret i1 %7
}

; Function Attrs: mustprogress uwtable
define linkonce_odr noundef ptr @_ZNK10OpenSubdiv6v3_6_03Bfr11FaceSurface10GetSubsetsEv(ptr noundef nonnull align 8 dereferenceable(143) %0) #0 comdat align 2 {
  %2 = alloca ptr, align 8
  store ptr %0, ptr %2, align 8
  %3 = load ptr, ptr %2, align 8
  %4 = getelementptr inbounds nuw %"class.OpenSubdiv::v3_6_0::Bfr::FaceSurface", ptr %3, i32 0, i32 2
  %5 = call noundef ptr @_ZNK10OpenSubdiv6v3_6_03Vtr8internal11StackBufferINS0_3Bfr16FaceVertexSubsetELj8ELb1EEcvPKS5_Ev(ptr noundef nonnull align 8 dereferenceable(120) %4)
  ret ptr %5
}

; Function Attrs: mustprogress nounwind uwtable
define linkonce_odr void @_ZN10OpenSubdiv6v3_6_03Bfr14MultiVertexTagD2Ev(ptr noundef nonnull align 2 dereferenceable(2) %0) unnamed_addr #1 comdat align 2 {
  %2 = alloca ptr, align 8
  store ptr %0, ptr %2, align 8
  %3 = load ptr, ptr %2, align 8
  call void @_ZN10OpenSubdiv6v3_6_03Bfr11FeatureBitsD2Ev(ptr noundef nonnull align 2 dereferenceable(2) %3) #4
  ret void
}

; Function Attrs: mustprogress nounwind uwtable
define linkonce_odr noundef zeroext i1 @_ZNK10OpenSubdiv6v3_6_03Bfr14MultiVertexTag19HasBoundaryVerticesEv(ptr noundef nonnull align 2 dereferenceable(2) %0) #1 comdat align 2 {
  %2 = alloca ptr, align 8
  store ptr %0, ptr %2, align 8
  %3 = load ptr, ptr %2, align 8
  %4 = load i16, ptr %3, align 2
  %5 = and i16 %4, 1
  %6 = icmp ne i16 %5, 0
  ret i1 %6
}

; Function Attrs: mustprogress nounwind uwtable
define linkonce_odr void @_ZNK10OpenSubdiv6v3_6_03Bfr11FaceSurface6GetTagEv(ptr dead_on_unwind noalias writable sret(%"class.OpenSubdiv::v3_6_0::Bfr::MultiVertexTag") align 2 %0, ptr noundef nonnull align 8 dereferenceable(143) %1) #1 comdat align 2 {
  %3 = alloca ptr, align 8
  %4 = alloca ptr, align 8
  store ptr %0, ptr %3, align 8
  store ptr %1, ptr %4, align 8
  %5 = load ptr, ptr %4, align 8
  %6 = getelementptr inbounds nuw %"class.OpenSubdiv::v3_6_0::Bfr::FaceSurface", ptr %5, i32 0, i32 3
  call void @llvm.memcpy.p0.p0.i64(ptr align 2 %0, ptr align 8 %6, i64 2, i1 false)
  ret void
}

; Function Attrs: mustprogress nounwind uwtable
define linkonce_odr noundef nonnull align 8 dereferenceable(944) ptr @_ZNK10OpenSubdiv6v3_6_03Bfr11FaceSurface11GetTopologyEv(ptr noundef nonnull align 8 dereferenceable(143) %0) #1 comdat align 2 {
  %2 = alloca ptr, align 8
  store ptr %0, ptr %2, align 8
  %3 = load ptr, ptr %2, align 8
  %4 = getelementptr inbounds nuw %"class.OpenSubdiv::v3_6_0::Bfr::FaceSurface", ptr %3, i32 0, i32 0
  %5 = load ptr, ptr %4, align 8
  ret ptr %5
}

; Function Attrs: mustprogress uwtable
define void @_ZN10OpenSubdiv6v3_6_03Bfr19RegularPatchBuilderC2ERKNS1_11FaceSurfaceE(ptr noundef nonnull align 8 dereferenceable(24) %0, ptr noundef nonnull align 8 dereferenceable(143) %1) unnamed_addr #0 align 2 personality ptr @__gxx_personality_v0 {
  %3 = alloca ptr, align 8
  %4 = alloca ptr, align 8
  %5 = alloca %"class.OpenSubdiv::v3_6_0::Bfr::MultiVertexTag", align 2
  %6 = alloca ptr, align 8
  %7 = alloca i32, align 4
  %8 = alloca ptr, align 8
  %9 = alloca i32, align 4
  %10 = alloca ptr, align 8
  %11 = alloca i32, align 4
  %12 = alloca i32, align 4
  store ptr %0, ptr %3, align 8
  store ptr %1, ptr %4, align 8
  %13 = load ptr, ptr %3, align 8
  %14 = getelementptr inbounds nuw %"class.OpenSubdiv::v3_6_0::Bfr::RegularPatchBuilder", ptr %13, i32 0, i32 0
  %15 = load ptr, ptr %4, align 8
  store ptr %15, ptr %14, align 8
  %16 = getelementptr inbounds nuw %"class.OpenSubdiv::v3_6_0::Bfr::RegularPatchBuilder", ptr %13, i32 0, i32 0
  %17 = load ptr, ptr %16, align 8
  %18 = call noundef nonnull align 8 dereferenceable(944) ptr @_ZNK10OpenSubdiv6v3_6_03Bfr11FaceSurface11GetTopologyEv(ptr noundef nonnull align 8 dereferenceable(143) %17)
  %19 = getelementptr inbounds nuw %"class.OpenSubdiv::v3_6_0::Bfr::FaceTopology", ptr %18, i32 0, i32 2
  %20 = load i32, ptr %19, align 8
  %21 = icmp eq i32 %20, 4
  %22 = zext i1 %21 to i32
  %23 = getelementptr inbounds nuw %"class.OpenSubdiv::v3_6_0::Bfr::RegularPatchBuilder", ptr %13, i32 0, i32 1
  %24 = trunc i32 %22 to i8
  %25 = load i8, ptr %23, align 8
  %26 = and i8 %24, 1
  %27 = and i8 %25, -2
  %28 = or i8 %27, %26
  store i8 %28, ptr %23, align 8
  %29 = getelementptr inbounds nuw %"class.OpenSubdiv::v3_6_0::Bfr::RegularPatchBuilder", ptr %13, i32 0, i32 1
  %30 = load i8, ptr %29, align 8
  %31 = and i8 %30, 1
  %32 = zext i8 %31 to i32
  %33 = icmp ne i32 %32, 0
  br i1 %33, label %34, label %37

34:                                               ; preds = %2
  %35 = getelementptr inbounds nuw %"class.OpenSubdiv::v3_6_0::Bfr::RegularPatchBuilder", ptr %13, i32 0, i32 4
  store i32 6, ptr %35, align 4
  %36 = getelementptr inbounds nuw %"class.OpenSubdiv::v3_6_0::Bfr::RegularPatchBuilder", ptr %13, i32 0, i32 3
  store i32 16, ptr %36, align 8
  br label %40

37:                                               ; preds = %2
  %38 = getelementptr inbounds nuw %"class.OpenSubdiv::v3_6_0::Bfr::RegularPatchBuilder", ptr %13, i32 0, i32 4
  store i32 5, ptr %38, align 4
  %39 = getelementptr inbounds nuw %"class.OpenSubdiv::v3_6_0::Bfr::RegularPatchBuilder", ptr %13, i32 0, i32 3
  store i32 12, ptr %39, align 8
  br label %40

40:                                               ; preds = %37, %34
  %41 = getelementptr inbounds nuw %"class.OpenSubdiv::v3_6_0::Bfr::RegularPatchBuilder", ptr %13, i32 0, i32 0
  %42 = load ptr, ptr %41, align 8
  call void @_ZNK10OpenSubdiv6v3_6_03Bfr11FaceSurface6GetTagEv(ptr dead_on_unwind writable sret(%"class.OpenSubdiv::v3_6_0::Bfr::MultiVertexTag") align 2 %5, ptr noundef nonnull align 8 dereferenceable(143) %42)
  %43 = invoke noundef zeroext i1 @_ZNK10OpenSubdiv6v3_6_03Bfr14MultiVertexTag19HasBoundaryVerticesEv(ptr noundef nonnull align 2 dereferenceable(2) %5)
          to label %44 unwind label %61

44:                                               ; preds = %40
  %45 = zext i1 %43 to i32
  %46 = getelementptr inbounds nuw %"class.OpenSubdiv::v3_6_0::Bfr::RegularPatchBuilder", ptr %13, i32 0, i32 1
  %47 = trunc i32 %45 to i8
  %48 = load i8, ptr %46, align 8
  %49 = and i8 %47, 1
  %50 = shl i8 %49, 1
  %51 = and i8 %48, -3
  %52 = or i8 %51, %50
  store i8 %52, ptr %46, align 8
  call void @_ZN10OpenSubdiv6v3_6_03Bfr14MultiVertexTagD2Ev(ptr noundef nonnull align 2 dereferenceable(2) %5) #4
  %53 = getelementptr inbounds nuw %"class.OpenSubdiv::v3_6_0::Bfr::RegularPatchBuilder", ptr %13, i32 0, i32 1
  %54 = load i8, ptr %53, align 8
  %55 = lshr i8 %54, 1
  %56 = and i8 %55, 1
  %57 = zext i8 %56 to i32
  %58 = icmp ne i32 %57, 0
  br i1 %58, label %65, label %59

59:                                               ; preds = %44
  %60 = getelementptr inbounds nuw %"class.OpenSubdiv::v3_6_0::Bfr::RegularPatchBuilder", ptr %13, i32 0, i32 2
  store i32 0, ptr %60, align 4
  br label %199

61:                                               ; preds = %40
  %62 = landingpad { ptr, i32 }
          cleanup
  %63 = extractvalue { ptr, i32 } %62, 0
  store ptr %63, ptr %6, align 8
  %64 = extractvalue { ptr, i32 } %62, 1
  store i32 %64, ptr %7, align 4
  call void @_ZN10OpenSubdiv6v3_6_03Bfr14MultiVertexTagD2Ev(ptr noundef nonnull align 2 dereferenceable(2) %5) #4
  br label %200

65:                                               ; preds = %44
  %66 = getelementptr inbounds nuw %"class.OpenSubdiv::v3_6_0::Bfr::RegularPatchBuilder", ptr %13, i32 0, i32 1
  %67 = load i8, ptr %66, align 8
  %68 = and i8 %67, 1
  %69 = zext i8 %68 to i32
  %70 = icmp ne i32 %69, 0
  br i1 %70, label %71, label %132

71:                                               ; preds = %65
  %72 = getelementptr inbounds nuw %"class.OpenSubdiv::v3_6_0::Bfr::RegularPatchBuilder", ptr %13, i32 0, i32 0
  %73 = load ptr, ptr %72, align 8
  %74 = call noundef ptr @_ZNK10OpenSubdiv6v3_6_03Bfr11FaceSurface10GetSubsetsEv(ptr noundef nonnull align 8 dereferenceable(143) %73)
  store ptr %74, ptr %8, align 8
  %75 = load ptr, ptr %8, align 8
  %76 = getelementptr inbounds %"struct.OpenSubdiv::v3_6_0::Bfr::FaceVertexSubset", ptr %75, i64 0
  %77 = call noundef zeroext i1 @_ZNK10OpenSubdiv6v3_6_03Bfr16FaceVertexSubset10IsBoundaryEv(ptr noundef nonnull align 4 dereferenceable(12) %76)
  %78 = zext i1 %77 to i32
  %79 = load ptr, ptr %8, align 8
  %80 = getelementptr inbounds %"struct.OpenSubdiv::v3_6_0::Bfr::FaceVertexSubset", ptr %79, i64 0
  %81 = getelementptr inbounds nuw %"struct.OpenSubdiv::v3_6_0::Bfr::FaceVertexSubset", ptr %80, i32 0, i32 1
  %82 = load i16, ptr %81, align 2
  %83 = sext i16 %82 to i32
  %84 = icmp eq i32 %83, 0
  %85 = zext i1 %84 to i32
  %86 = and i32 %78, %85
  %87 = shl i32 %86, 0
  %88 = load ptr, ptr %8, align 8
  %89 = getelementptr inbounds %"struct.OpenSubdiv::v3_6_0::Bfr::FaceVertexSubset", ptr %88, i64 1
  %90 = call noundef zeroext i1 @_ZNK10OpenSubdiv6v3_6_03Bfr16FaceVertexSubset10IsBoundaryEv(ptr noundef nonnull align 4 dereferenceable(12) %89)
  %91 = zext i1 %90 to i32
  %92 = load ptr, ptr %8, align 8
  %93 = getelementptr inbounds %"struct.OpenSubdiv::v3_6_0::Bfr::FaceVertexSubset", ptr %92, i64 1
  %94 = getelementptr inbounds nuw %"struct.OpenSubdiv::v3_6_0::Bfr::FaceVertexSubset", ptr %93, i32 0, i32 1
  %95 = load i16, ptr %94, align 2
  %96 = sext i16 %95 to i32
  %97 = icmp eq i32 %96, 0
  %98 = zext i1 %97 to i32
  %99 = and i32 %91, %98
  %100 = shl i32 %99, 1
  %101 = or i32 %87, %100
  %102 = load ptr, ptr %8, align 8
  %103 = getelementptr inbounds %"struct.OpenSubdiv::v3_6_0::Bfr::FaceVertexSubset", ptr %102, i64 2
  %104 = call noundef zeroext i1 @_ZNK10OpenSubdiv6v3_6_03Bfr16FaceVertexSubset10IsBoundaryEv(ptr noundef nonnull align 4 dereferenceable(12) %103)
  %105 = zext i1 %104 to i32
  %106 = load ptr, ptr %8, align 8
  %107 = getelementptr inbounds %"struct.OpenSubdiv::v3_6_0::Bfr::FaceVertexSubset", ptr %106, i64 2
  %108 = getelementptr inbounds nuw %"struct.OpenSubdiv::v3_6_0::Bfr::FaceVertexSubset", ptr %107, i32 0, i32 1
  %109 = load i16, ptr %108, align 2
  %110 = sext i16 %109 to i32
  %111 = icmp eq i32 %110, 0
  %112 = zext i1 %111 to i32
  %113 = and i32 %105, %112
  %114 = shl i32 %113, 2
  %115 = or i32 %101, %114
  %116 = load ptr, ptr %8, align 8
  %117 = getelementptr inbounds %"struct.OpenSubdiv::v3_6_0::Bfr::FaceVertexSubset", ptr %116, i64 3
  %118 = call noundef zeroext i1 @_ZNK10OpenSubdiv6v3_6_03Bfr16FaceVertexSubset10IsBoundaryEv(ptr noundef nonnull align 4 dereferenceable(12) %117)
  %119 = zext i1 %118 to i32
  %120 = load ptr, ptr %8, align 8
  %121 = getelementptr inbounds %"struct.OpenSubdiv::v3_6_0::Bfr::FaceVertexSubset", ptr %120, i64 3
  %122 = getelementptr inbounds nuw %"struct.OpenSubdiv::v3_6_0::Bfr::FaceVertexSubset", ptr %121, i32 0, i32 1
  %123 = load i16, ptr %122, align 2
  %124 = sext i16 %123 to i32
  %125 = icmp eq i32 %124, 0
  %126 = zext i1 %125 to i32
  %127 = and i32 %119, %126
  %128 = shl i32 %127, 3
  %129 = or i32 %115, %128
  store i32 %129, ptr %9, align 4
  %130 = load i32, ptr %9, align 4
  %131 = getelementptr inbounds nuw %"class.OpenSubdiv::v3_6_0::Bfr::RegularPatchBuilder", ptr %13, i32 0, i32 2
  store i32 %130, ptr %131, align 4
  br label %198

132:                                              ; preds = %65
  %133 = getelementptr inbounds nuw %"class.OpenSubdiv::v3_6_0::Bfr::RegularPatchBuilder", ptr %13, i32 0, i32 0
  %134 = load ptr, ptr %133, align 8
  %135 = call noundef ptr @_ZNK10OpenSubdiv6v3_6_03Bfr11FaceSurface10GetSubsetsEv(ptr noundef nonnull align 8 dereferenceable(143) %134)
  store ptr %135, ptr %10, align 8
  %136 = load ptr, ptr %10, align 8
  %137 = getelementptr inbounds %"struct.OpenSubdiv::v3_6_0::Bfr::FaceVertexSubset", ptr %136, i64 0
  %138 = call noundef zeroext i1 @_ZNK10OpenSubdiv6v3_6_03Bfr16FaceVertexSubset10IsBoundaryEv(ptr noundef nonnull align 4 dereferenceable(12) %137)
  %139 = zext i1 %138 to i32
  %140 = load ptr, ptr %10, align 8
  %141 = getelementptr inbounds %"struct.OpenSubdiv::v3_6_0::Bfr::FaceVertexSubset", ptr %140, i64 0
  %142 = getelementptr inbounds nuw %"struct.OpenSubdiv::v3_6_0::Bfr::FaceVertexSubset", ptr %141, i32 0, i32 1
  %143 = load i16, ptr %142, align 2
  %144 = sext i16 %143 to i32
  %145 = icmp eq i32 %144, 0
  %146 = zext i1 %145 to i32
  %147 = and i32 %139, %146
  %148 = shl i32 %147, 0
  %149 = load ptr, ptr %10, align 8
  %150 = getelementptr inbounds %"struct.OpenSubdiv::v3_6_0::Bfr::FaceVertexSubset", ptr %149, i64 1
  %151 = call noundef zeroext i1 @_ZNK10OpenSubdiv6v3_6_03Bfr16FaceVertexSubset10IsBoundaryEv(ptr noundef nonnull align 4 dereferenceable(12) %150)
  %152 = zext i1 %151 to i32
  %153 = load ptr, ptr %10, align 8
  %154 = getelementptr inbounds %"struct.OpenSubdiv::v3_6_0::Bfr::FaceVertexSubset", ptr %153, i64 1
  %155 = getelementptr inbounds nuw %"struct.OpenSubdiv::v3_6_0::Bfr::FaceVertexSubset", ptr %154, i32 0, i32 1
  %156 = load i16, ptr %155, align 2
  %157 = sext i16 %156 to i32
  %158 = icmp eq i32 %157, 0
  %159 = zext i1 %158 to i32
  %160 = and i32 %152, %159
  %161 = shl i32 %160, 1
  %162 = or i32 %148, %161
  %163 = load ptr, ptr %10, align 8
  %164 = getelementptr inbounds %"struct.OpenSubdiv::v3_6_0::Bfr::FaceVertexSubset", ptr %163, i64 2
  %165 = call noundef zeroext i1 @_ZNK10OpenSubdiv6v3_6_03Bfr16FaceVertexSubset10IsBoundaryEv(ptr noundef nonnull align 4 dereferenceable(12) %164)
  %166 = zext i1 %165 to i32
  %167 = load ptr, ptr %10, align 8
  %168 = getelementptr inbounds %"struct.OpenSubdiv::v3_6_0::Bfr::FaceVertexSubset", ptr %167, i64 2
  %169 = getelementptr inbounds nuw %"struct.OpenSubdiv::v3_6_0::Bfr::FaceVertexSubset", ptr %168, i32 0, i32 1
  %170 = load i16, ptr %169, align 2
  %171 = sext i16 %170 to i32
  %172 = icmp eq i32 %171, 0
  %173 = zext i1 %172 to i32
  %174 = and i32 %166, %173
  %175 = shl i32 %174, 2
  %176 = or i32 %162, %175
  store i32 %176, ptr %11, align 4
  %177 = load ptr, ptr %10, align 8
  %178 = getelementptr inbounds %"struct.OpenSubdiv::v3_6_0::Bfr::FaceVertexSubset", ptr %177, i64 0
  %179 = call noundef zeroext i1 @_ZNK10OpenSubdiv6v3_6_03Bfr16FaceVertexSubset10IsBoundaryEv(ptr noundef nonnull align 4 dereferenceable(12) %178)
  %180 = zext i1 %179 to i32
  %181 = shl i32 %180, 0
  %182 = load ptr, ptr %10, align 8
  %183 = getelementptr inbounds %"struct.OpenSubdiv::v3_6_0::Bfr::FaceVertexSubset", ptr %182, i64 1
  %184 = call noundef zeroext i1 @_ZNK10OpenSubdiv6v3_6_03Bfr16FaceVertexSubset10IsBoundaryEv(ptr noundef nonnull align 4 dereferenceable(12) %183)
  %185 = zext i1 %184 to i32
  %186 = shl i32 %185, 1
  %187 = or i32 %181, %186
  %188 = load ptr, ptr %10, align 8
  %189 = getelementptr inbounds %"struct.OpenSubdiv::v3_6_0::Bfr::FaceVertexSubset", ptr %188, i64 2
  %190 = call noundef zeroext i1 @_ZNK10OpenSubdiv6v3_6_03Bfr16FaceVertexSubset10IsBoundaryEv(ptr noundef nonnull align 4 dereferenceable(12) %189)
  %191 = zext i1 %190 to i32
  %192 = shl i32 %191, 2
  %193 = or i32 %187, %192
  store i32 %193, ptr %12, align 4
  %194 = load i32, ptr %11, align 4
  %195 = load i32, ptr %12, align 4
  %196 = call noundef i32 @_ZN10OpenSubdiv6v3_6_03Bfr12_GLOBAL__N_121encodeTriBoundaryMaskEii(i32 noundef %194, i32 noundef %195)
  %197 = getelementptr inbounds nuw %"class.OpenSubdiv::v3_6_0::Bfr::RegularPatchBuilder", ptr %13, i32 0, i32 2
  store i32 %196, ptr %197, align 4
  br label %198

198:                                              ; preds = %132, %71
  br label %199

199:                                              ; preds = %198, %59
  ret void

200:                                              ; preds = %61
  %201 = load ptr, ptr %6, align 8
  %202 = load i32, ptr %7, align 4
  %203 = insertvalue { ptr, i32 } poison, ptr %201, 0
  %204 = insertvalue { ptr, i32 } %203, i32 %202, 1
  resume { ptr, i32 } %204
}