; Function Attrs: mustprogress nofree norecurse nosync nounwind willreturn memory(read, argmem: readwrite, inaccessiblemem: none) uwtable
define void @_ZN10OpenSubdiv6v3_6_03Bfr19RegularPatchBuilderC2ERKNS1_11FaceSurfaceE(ptr noundef nonnull align 8 captures(none) dereferenceable(24) initializes((0, 8), (12, 24)) %0, ptr noundef nonnull align 8 dereferenceable(143) %1) unnamed_addr #1 align 2 personality ptr @__gxx_personality_v0 {
  store ptr %1, ptr %0, align 8
  %3 = load ptr, ptr %1, align 8
  %4 = getelementptr inbounds nuw i8, ptr %3, i64 8
  %5 = load i32, ptr %4, align 8
  %6 = icmp eq i32 %5, 4
  %7 = getelementptr inbounds nuw i8, ptr %0, i64 8
  %8 = zext i1 %6 to i8
  %9 = load i8, ptr %7, align 8
  %10 = and i8 %9, -2
  %11 = or disjoint i8 %10, %8
  store i8 %11, ptr %7, align 8
  %spec.select = select i1 %6, i32 6, i32 5
  %spec.select24 = select i1 %6, i32 16, i32 12
  %12 = getelementptr inbounds nuw i8, ptr %0, i64 20
  store i32 %spec.select, ptr %12, align 4
  %13 = getelementptr inbounds nuw i8, ptr %0, i64 16
  store i32 %spec.select24, ptr %13, align 8
  %14 = getelementptr inbounds nuw i8, ptr %1, i64 136
  %15 = load i16, ptr %14, align 8, !noalias !5
  %16 = trunc i16 %15 to i8
  %17 = shl i8 %16, 1
  %18 = and i8 %17, 2
  %19 = and i8 %11, -3
  %20 = or disjoint i8 %18, %19
  store i8 %20, ptr %7, align 8
  %.not = icmp eq i8 %18, 0
  br i1 %.not, label %76, label %21

21:                                               ; preds = %2
  %22 = getelementptr inbounds nuw i8, ptr %1, i64 16
  %23 = load ptr, ptr %22, align 8
  %24 = load i16, ptr %23, align 4
  %25 = and i16 %24, 1
  %26 = icmp ne i16 %25, 0
  %27 = getelementptr inbounds nuw i8, ptr %23, i64 2
  %28 = load i16, ptr %27, align 2
  %29 = icmp eq i16 %28, 0
  %30 = and i1 %26, %29
  %31 = zext i1 %30 to i32
  %32 = getelementptr inbounds nuw i8, ptr %23, i64 12
  %33 = load i16, ptr %32, align 4
  %34 = and i16 %33, 1
  %35 = icmp ne i16 %34, 0
  %36 = getelementptr inbounds nuw i8, ptr %23, i64 14
  %37 = load i16, ptr %36, align 2
  %38 = icmp eq i16 %37, 0
  %39 = and i1 %35, %38
  %40 = select i1 %39, i32 2, i32 0
  %41 = or disjoint i32 %40, %31
  %42 = getelementptr inbounds nuw i8, ptr %23, i64 24
  %43 = load i16, ptr %42, align 4
  %44 = and i16 %43, 1
  %45 = icmp ne i16 %44, 0
  %46 = getelementptr inbounds nuw i8, ptr %23, i64 26
  %47 = load i16, ptr %46, align 2
  %48 = icmp eq i16 %47, 0
  %49 = and i1 %45, %48
  %50 = select i1 %49, i32 4, i32 0
  %51 = or disjoint i32 %41, %50
  br i1 %6, label %52, label %63

52:                                               ; preds = %21
  %53 = getelementptr inbounds nuw i8, ptr %23, i64 36
  %54 = load i16, ptr %53, align 4
  %55 = and i16 %54, 1
  %56 = icmp ne i16 %55, 0
  %57 = getelementptr inbounds nuw i8, ptr %23, i64 38
  %58 = load i16, ptr %57, align 2
  %59 = icmp eq i16 %58, 0
  %60 = and i1 %56, %59
  %61 = select i1 %60, i32 8, i32 0
  %62 = or disjoint i32 %51, %61
  br label %76

63:                                               ; preds = %21
  %64 = shl nuw nsw i16 %34, 1
  %65 = shl nuw nsw i16 %44, 2
  %66 = or disjoint i16 %65, %64
  %67 = or disjoint i16 %66, %25
  %.not.i = icmp eq i16 %67, 0
  br i1 %.not.i, label %_ZN10OpenSubdiv6v3_6_03Bfr12_GLOBAL__N_121encodeTriBoundaryMaskEii.exit, label %68

68:                                               ; preds = %63
  %69 = zext nneg i16 %67 to i32
  %70 = icmp eq i32 %51, 0
  br i1 %70, label %_ZN10OpenSubdiv6v3_6_03Bfr12_GLOBAL__N_121encodeTriBoundaryMaskEii.exit, label %71

71:                                               ; preds = %68
  %72 = icmp eq i16 %67, 7
  br i1 %72, label %73, label %_ZN10OpenSubdiv6v3_6_03Bfr12_GLOBAL__N_121encodeTriBoundaryMaskEii.exit

73:                                               ; preds = %71
  switch i32 %51, label %_ZN10OpenSubdiv6v3_6_03Bfr12_GLOBAL__N_121encodeTriBoundaryMaskEii.exit [
    i32 4, label %74
    i32 2, label %74
    i32 1, label %74
  ]

74:                                               ; preds = %73, %73, %73
  br label %_ZN10OpenSubdiv6v3_6_03Bfr12_GLOBAL__N_121encodeTriBoundaryMaskEii.exit

_ZN10OpenSubdiv6v3_6_03Bfr12_GLOBAL__N_121encodeTriBoundaryMaskEii.exit: ; preds = %63, %68, %71, %73, %74
  %.014.i = phi i32 [ 16, %74 ], [ 0, %73 ], [ 0, %71 ], [ 0, %63 ], [ 8, %68 ]
  %.0.i = phi i32 [ %51, %74 ], [ %51, %73 ], [ %51, %71 ], [ %51, %63 ], [ %69, %68 ]
  %75 = or disjoint i32 %.0.i, %.014.i
  br label %76

76:                                               ; preds = %2, %52, %_ZN10OpenSubdiv6v3_6_03Bfr12_GLOBAL__N_121encodeTriBoundaryMaskEii.exit
  %.sink = phi i32 [ %62, %52 ], [ %75, %_ZN10OpenSubdiv6v3_6_03Bfr12_GLOBAL__N_121encodeTriBoundaryMaskEii.exit ], [ 0, %2 ]
  %77 = getelementptr inbounds nuw i8, ptr %0, i64 12
  store i32 %.sink, ptr %77, align 4
  ret void
}